target datalayout = "e-m:e-p270:32:32-p271:32:32-p272:64:64-i64:64-i128:128-f80:128-n8:16:32:64-S128"
target triple = "x86_64-pc-linux-gnu"

%struct.VP8Residual = type { i32, i32, ptr, i32, ptr, ptr, ptr }

@VP8EncBands = external constant [17 x i8], align 16

; Function Attrs: nounwind uwtable
define internal i32 @VP8RecordStats(i32 noundef %0, ptr noundef %1) #0 {
  %3 = alloca i32, align 4
  %4 = alloca ptr, align 8
  %5 = alloca i32, align 4
  store i32 %0, ptr %3, align 4
  store ptr %1, ptr %4, align 8
  %6 = load ptr, ptr %4, align 8
  %7 = load i32, ptr %6, align 4
  store i32 %7, ptr %5, align 4
  %8 = load i32, ptr %5, align 4
  %9 = icmp uge i32 %8, -131072
  br i1 %9, label %10, label %15

10:                                               ; preds = %2
  %11 = load i32, ptr %5, align 4
  %12 = add i32 %11, 1
  %13 = lshr i32 %12, 1
  %14 = and i32 %13, 2147450879
  store i32 %14, ptr %5, align 4
  br label %15

15:                                               ; preds = %10, %2
  %16 = load i32, ptr %3, align 4
  %17 = add i32 65536, %16
  %18 = load i32, ptr %5, align 4
  %19 = add i32 %18, %17
  store i32 %19, ptr %5, align 4
  %20 = load i32, ptr %5, align 4
  %21 = load ptr, ptr %4, align 8
  store i32 %20, ptr %21, align 4
  %22 = load i32, ptr %3, align 4
  ret i32 %22
}

; Function Attrs: nounwind uwtable
define hidden i32 @VP8RecordCoeffs(i32 noundef %0, ptr noundef %1) #0 {
  %3 = alloca i32, align 4
  %4 = alloca i32, align 4
  %5 = alloca ptr, align 8
  %6 = alloca i32, align 4
  %7 = alloca ptr, align 8
  %8 = alloca i32, align 4
  %9 = alloca i32, align 4
  %10 = alloca i32, align 4
  %11 = alloca i32, align 4
  %12 = alloca i32, align 4
  store i32 %0, ptr %4, align 4
  store ptr %1, ptr %5, align 8
  %13 = load ptr, ptr %5, align 8
  %14 = getelementptr inbounds %struct.VP8Residual, ptr %13, i32 0, i32 0
  %15 = load i32, ptr %14, align 8
  store i32 %15, ptr %6, align 4
  %16 = load ptr, ptr %5, align 8
  %17 = getelementptr inbounds %struct.VP8Residual, ptr %16, i32 0, i32 5
  %18 = load ptr, ptr %17, align 8
  %19 = load i32, ptr %6, align 4
  %20 = sext i32 %19 to i64
  %21 = getelementptr inbounds [3 x [11 x i32]], ptr %18, i64 %20
  %22 = load i32, ptr %4, align 4
  %23 = sext i32 %22 to i64
  %24 = getelementptr inbounds [3 x [11 x i32]], ptr %21, i64 0, i64 %23
  %25 = getelementptr inbounds [11 x i32], ptr %24, i64 0, i64 0
  store ptr %25, ptr %7, align 8
  %26 = load ptr, ptr %5, align 8
  %27 = getelementptr inbounds %struct.VP8Residual, ptr %26, i32 0, i32 1
  %28 = load i32, ptr %27, align 4
  %29 = icmp slt i32 %28, 0
  br i1 %29, label %30, label %34

30:                                               ; preds = %2
  %31 = load ptr, ptr %7, align 8
  %32 = getelementptr inbounds i32, ptr %31, i64 0
  %33 = call i32 @VP8RecordStats(i32 noundef 0, ptr noundef %32)
  store i32 0, ptr %3, align 4
  br label %165

34:                                               ; preds = %2
  br label %35

35:                                               ; preds = %156, %34
  %36 = load i32, ptr %6, align 4
  %37 = load ptr, ptr %5, align 8
  %38 = getelementptr inbounds %struct.VP8Residual, ptr %37, i32 0, i32 1
  %39 = load i32, ptr %38, align 4
  %40 = icmp sle i32 %36, %39
  br i1 %40, label %41, label %157

41:                                               ; preds = %35
  %42 = load ptr, ptr %7, align 8
  %43 = getelementptr inbounds i32, ptr %42, i64 0
  %44 = call i32 @VP8RecordStats(i32 noundef 1, ptr noundef %43)
  br label %45

45:                                               ; preds = %56, %41
  %46 = load ptr, ptr %5, align 8
  %47 = getelementptr inbounds %struct.VP8Residual, ptr %46, i32 0, i32 2
  %48 = load ptr, ptr %47, align 8
  %49 = load i32, ptr %6, align 4
  %50 = add nsw i32 %49, 1
  store i32 %50, ptr %6, align 4
  %51 = sext i32 %49 to i64
  %52 = getelementptr inbounds i16, ptr %48, i64 %51
  %53 = load i16, ptr %52, align 2
  %54 = sext i16 %53 to i32
  store i32 %54, ptr %8, align 4
  %55 = icmp eq i32 %54, 0
  br i1 %55, label %56, label %71

56:                                               ; preds = %45
  %57 = load ptr, ptr %7, align 8
  %58 = getelementptr inbounds i32, ptr %57, i64 1
  %59 = call i32 @VP8RecordStats(i32 noundef 0, ptr noundef %58)
  %60 = load ptr, ptr %5, align 8
  %61 = getelementptr inbounds %struct.VP8Residual, ptr %60, i32 0, i32 5
  %62 = load ptr, ptr %61, align 8
  %63 = load i32, ptr %6, align 4
  %64 = sext i32 %63 to i64
  %65 = getelementptr inbounds [17 x i8], ptr @VP8EncBands, i64 0, i64 %64
  %66 = load i8, ptr %65, align 1
  %67 = zext i8 %66 to i64
  %68 = getelementptr inbounds [3 x [11 x i32]], ptr %62, i64 %67
  %69 = getelementptr inbounds [3 x [11 x i32]], ptr %68, i64 0, i64 0
  %70 = getelementptr inbounds [11 x i32], ptr %69, i64 0, i64 0
  store ptr %70, ptr %7, align 8
  br label %45, !llvm.loop !17

71:                                               ; preds = %45
  %72 = load ptr, ptr %7, align 8
  %73 = getelementptr inbounds i32, ptr %72, i64 1
  %74 = call i32 @VP8RecordStats(i32 noundef 1, ptr noundef %73)
  %75 = load i32, ptr %8, align 4
  %76 = add nsw i32 %75, 1
  %77 = icmp ult i32 2, %76
  %78 = zext i1 %77 to i32
  %79 = load ptr, ptr %7, align 8
  %80 = getelementptr inbounds i32, ptr %79, i64 2
  %81 = call i32 @VP8RecordStats(i32 noundef %78, ptr noundef %80)
  %82 = icmp ne i32 %81, 0
  br i1 %82, label %95, label %83

83:                                               ; preds = %71
  %84 = load ptr, ptr %5, align 8
  %85 = getelementptr inbounds %struct.VP8Residual, ptr %84, i32 0, i32 5
  %86 = load ptr, ptr %85, align 8
  %87 = load i32, ptr %6, align 4
  %88 = sext i32 %87 to i64
  %89 = getelementptr inbounds [17 x i8], ptr @VP8EncBands, i64 0, i64 %88
  %90 = load i8, ptr %89, align 1
  %91 = zext i8 %90 to i64
  %92 = getelementptr inbounds [3 x [11 x i32]], ptr %86, i64 %91
  %93 = getelementptr inbounds [3 x [11 x i32]], ptr %92, i64 0, i64 1
  %94 = getelementptr inbounds [11 x i32], ptr %93, i64 0, i64 0
  store ptr %94, ptr %7, align 8
  br label %156

95:                                               ; preds = %71
  %96 = load i32, ptr %8, align 4
  %97 = call i32 @llvm.abs.i32(i32 %96, i1 true)
  store i32 %97, ptr %8, align 4
  %98 = load i32, ptr %8, align 4
  %99 = icmp sgt i32 %98, 67
  br i1 %99, label %100, label %101

100:                                              ; preds = %95
  store i32 67, ptr %8, align 4
  br label %101

101:                                              ; preds = %100, %95
  %102 = load i32, ptr %8, align 4
  %103 = sub nsw i32 %102, 1
  %104 = sext i32 %103 to i64
  %105 = getelementptr inbounds [67 x [2 x i16]], ptr @VP8LevelCodes, i64 0, i64 %104
  %106 = getelementptr inbounds [2 x i16], ptr %105, i64 0, i64 1
  %107 = load i16, ptr %106, align 2
  %108 = zext i16 %107 to i32
  store i32 %108, ptr %9, align 4
  %109 = load i32, ptr %8, align 4
  %110 = sub nsw i32 %109, 1
  %111 = sext i32 %110 to i64
  %112 = getelementptr inbounds [67 x [2 x i16]], ptr @VP8LevelCodes, i64 0, i64 %111
  %113 = getelementptr inbounds [2 x i16], ptr %112, i64 0, i64 0
  %114 = load i16, ptr %113, align 4
  %115 = zext i16 %114 to i32
  store i32 %115, ptr %10, align 4
  store i32 0, ptr %11, align 4
  br label %116

116:                                              ; preds = %141, %101
  %117 = load i32, ptr %10, align 4
  %118 = ashr i32 %117, 1
  store i32 %118, ptr %10, align 4
  %119 = icmp ne i32 %118, 0
  br i1 %119, label %120, label %144

120:                                              ; preds = %116
  %121 = load i32, ptr %11, align 4
  %122 = shl i32 2, %121
  store i32 %122, ptr %12, align 4
  %123 = load i32, ptr %10, align 4
  %124 = and i32 %123, 1
  %125 = icmp ne i32 %124, 0
  br i1 %125, label %126, label %140

126:                                              ; preds = %120
  %127 = load i32, ptr %9, align 4
  %128 = load i32, ptr %12, align 4
  %129 = and i32 %127, %128
  %130 = icmp ne i32 %129, 0
  %131 = xor i1 %130, true
  %132 = xor i1 %131, true
  %133 = zext i1 %132 to i32
  %134 = load ptr, ptr %7, align 8
  %135 = getelementptr inbounds i32, ptr %134, i64 3
  %136 = load i32, ptr %11, align 4
  %137 = sext i32 %136 to i64
  %138 = getelementptr inbounds i32, ptr %135, i64 %137
  %139 = call i32 @VP8RecordStats(i32 noundef %133, ptr noundef %138)
  br label %140

140:                                              ; preds = %126, %120
  br label %141

141:                                              ; preds = %140
  %142 = load i32, ptr %11, align 4
  %143 = add nsw i32 %142, 1
  store i32 %143, ptr %11, align 4
  br label %116, !llvm.loop !18

144:                                              ; preds = %116
  %145 = load ptr, ptr %5, align 8
  %146 = getelementptr inbounds %struct.VP8Residual, ptr %145, i32 0, i32 5
  %147 = load ptr, ptr %146, align 8
  %148 = load i32, ptr %6, align 4
  %149 = sext i32 %148 to i64
  %150 = getelementptr inbounds [17 x i8], ptr @VP8EncBands, i64 0, i64 %149
  %151 = load i8, ptr %150, align 1
  %152 = zext i8 %151 to i64
  %153 = getelementptr inbounds [3 x [11 x i32]], ptr %147, i64 %152
  %154 = getelementptr inbounds [3 x [11 x i32]], ptr %153, i64 0, i64 2
  %155 = getelementptr inbounds [11 x i32], ptr %154, i64 0, i64 0
  store ptr %155, ptr %7, align 8
  br label %156

156:                                              ; preds = %144, %83
  br label %35, !llvm.loop !19

157:                                              ; preds = %35
  %158 = load i32, ptr %6, align 4
  %159 = icmp slt i32 %158, 16
  br i1 %159, label %160, label %164

160:                                              ; preds = %157
  %161 = load ptr, ptr %7, align 8
  %162 = getelementptr inbounds i32, ptr %161, i64 0
  %163 = call i32 @VP8RecordStats(i32 noundef 0, ptr noundef %162)
  br label %164

164:                                              ; preds = %160, %157
  store i32 1, ptr %3, align 4
  br label %165

165:                                              ; preds = %164, %30
  %166 = load i32, ptr %3, align 4
  ret i32 %166
}