; Function Attrs: nofree norecurse nosync nounwind memory(readwrite, inaccessiblemem: none) uwtable
define hidden range(i32 0, 2) i32 @VP8RecordCoeffs(i32 noundef %0, ptr nocapture noundef readonly %1) local_unnamed_addr #4 {
  %3 = load i32, ptr %1, align 8
  %4 = getelementptr inbounds i8, ptr %1, i64 32
  %5 = load ptr, ptr %4, align 8
  %6 = sext i32 %3 to i64
  %7 = sext i32 %0 to i64
  %8 = getelementptr inbounds [3 x [11 x i32]], ptr %5, i64 %6, i64 %7
  %9 = getelementptr inbounds i8, ptr %1, i64 4
  %10 = load i32, ptr %9, align 4
  %11 = icmp slt i32 %10, 0
  br i1 %11, label %.sink.split, label %.preheader

.preheader:                                       ; preds = %2
  %.not63 = icmp sgt i32 %3, %10
  br i1 %.not63, label %._crit_edge67, label %.lr.ph66

.lr.ph66:                                         ; preds = %.preheader
  %12 = getelementptr inbounds i8, ptr %1, i64 8
  br label %13

13:                                               ; preds = %.lr.ph66, %._crit_edge62
  %.03765 = phi i32 [ %3, %.lr.ph66 ], [ %.lcssa52, %._crit_edge62 ]
  %.03864 = phi ptr [ %8, %.lr.ph66 ], [ %89, %._crit_edge62 ]
  %14 = load i32, ptr %.03864, align 4
  %15 = icmp ugt i32 %14, -131073
  %16 = add nsw i32 %14, 1
  %17 = lshr i32 %16, 1
  %18 = and i32 %17, 2147450879
  %.0.i45 = select i1 %15, i32 %18, i32 %14
  %19 = add nuw i32 %.0.i45, 65537
  store i32 %19, ptr %.03864, align 4
  %20 = load ptr, ptr %12, align 8
  %21 = add i32 %.03765, 1
  %22 = sext i32 %.03765 to i64
  %23 = getelementptr inbounds i16, ptr %20, i64 %22
  %24 = load i16, ptr %23, align 2
  %25 = icmp eq i16 %24, 0
  br i1 %25, label %.lr.ph.preheader, label %._crit_edge

.lr.ph.preheader:                                 ; preds = %13
  %26 = sext i32 %21 to i64
  br label %.lr.ph

.lr.ph:                                           ; preds = %.lr.ph.preheader, %.lr.ph
  %indvars.iv = phi i64 [ %26, %.lr.ph.preheader ], [ %indvars.iv.next, %.lr.ph ]
  %.13954 = phi ptr [ %.03864, %.lr.ph.preheader ], [ %38, %.lr.ph ]
  %27 = getelementptr inbounds i8, ptr %.13954, i64 4
  %28 = load i32, ptr %27, align 4
  %29 = icmp ugt i32 %28, -131073
  %30 = add nsw i32 %28, 1
  %31 = lshr i32 %30, 1
  %32 = and i32 %31, 2147450879
  %.0.i46 = select i1 %29, i32 %32, i32 %28
  %33 = add nuw i32 %.0.i46, 65536
  store i32 %33, ptr %27, align 4
  %34 = load ptr, ptr %4, align 8
  %35 = getelementptr inbounds [17 x i8], ptr @VP8EncBands, i64 0, i64 %indvars.iv
  %36 = load i8, ptr %35, align 1
  %37 = zext i8 %36 to i64
  %38 = getelementptr inbounds [3 x [11 x i32]], ptr %34, i64 %37
  %39 = load ptr, ptr %12, align 8
  %indvars.iv.next = add nsw i64 %indvars.iv, 1
  %40 = getelementptr inbounds i16, ptr %39, i64 %indvars.iv
  %41 = load i16, ptr %40, align 2
  %42 = icmp eq i16 %41, 0
  br i1 %42, label %.lr.ph, label %._crit_edge.loopexit, !llvm.loop !17

._crit_edge.loopexit:                             ; preds = %.lr.ph
  %43 = trunc nsw i64 %indvars.iv.next to i32
  br label %._crit_edge

._crit_edge:                                      ; preds = %._crit_edge.loopexit, %13
  %.lcssa53 = phi i16 [ %24, %13 ], [ %41, %._crit_edge.loopexit ]
  %.139.lcssa = phi ptr [ %.03864, %13 ], [ %38, %._crit_edge.loopexit ]
  %.lcssa52 = phi i32 [ %21, %13 ], [ %43, %._crit_edge.loopexit ]
  %44 = sext i16 %.lcssa53 to i32
  %45 = getelementptr inbounds i8, ptr %.139.lcssa, i64 4
  %46 = add nsw i32 %44, 1
  %47 = icmp ult i32 %46, 3
  %48 = select i1 %47, i32 65536, i32 65537
  %49 = load <2 x i32>, ptr %45, align 4
  %50 = icmp ugt <2 x i32> %49, <i32 -131073, i32 -131073>
  %51 = add nsw <2 x i32> %49, <i32 1, i32 1>
  %52 = lshr <2 x i32> %51, <i32 1, i32 1>
  %53 = and <2 x i32> %52, <i32 2147450879, i32 2147450879>
  %54 = select <2 x i1> %50, <2 x i32> %53, <2 x i32> %49
  %55 = insertelement <2 x i32> <i32 65537, i32 poison>, i32 %48, i64 1
  %56 = add nuw <2 x i32> %54, %55
  store <2 x i32> %56, ptr %45, align 4
  br i1 %47, label %._crit_edge62, label %57

57:                                               ; preds = %._crit_edge
  %58 = tail call i32 @llvm.abs.i32(i32 %44, i1 true)
  %spec.store.select = tail call i32 @llvm.umin.i32(i32 %58, i32 67)
  %59 = add nsw i32 %spec.store.select, -1
  %60 = sext i32 %59 to i64
  %61 = getelementptr inbounds [67 x [2 x i16]], ptr @VP8LevelCodes, i64 0, i64 %60
  %62 = getelementptr inbounds i8, ptr %61, i64 2
  %63 = load i16, ptr %62, align 2
  %64 = zext i16 %63 to i32
  %65 = load i16, ptr %61, align 4
  %.not4357 = icmp ult i16 %65, 2
  br i1 %.not4357, label %._crit_edge62, label %.lr.ph61

.lr.ph61:                                         ; preds = %57
  %66 = zext i16 %65 to i32
  %67 = getelementptr inbounds i8, ptr %.139.lcssa, i64 12
  br label %68

68:                                               ; preds = %.lr.ph61, %83
  %indvars.iv73 = phi i64 [ 0, %.lr.ph61 ], [ %indvars.iv.next74, %83 ]
  %.03658 = phi i32 [ %66, %.lr.ph61 ], [ %69, %83 ]
  %69 = lshr i32 %.03658, 1
  %70 = and i32 %.03658, 2
  %.not44 = icmp eq i32 %70, 0
  br i1 %.not44, label %83, label %71

71:                                               ; preds = %68
  %72 = trunc nuw nsw i64 %indvars.iv73 to i32
  %73 = shl i32 2, %72
  %74 = and i32 %73, %64
  %.not51 = icmp eq i32 %74, 0
  %75 = getelementptr inbounds i32, ptr %67, i64 %indvars.iv73
  %76 = load i32, ptr %75, align 4
  %77 = icmp ugt i32 %76, -131073
  %78 = add nsw i32 %76, 1
  %79 = lshr i32 %78, 1
  %80 = and i32 %79, 2147450879
  %.0.i49 = select i1 %77, i32 %80, i32 %76
  %81 = select i1 %.not51, i32 65536, i32 65537
  %82 = add nuw i32 %.0.i49, %81
  store i32 %82, ptr %75, align 4
  br label %83

83:                                               ; preds = %68, %71
  %indvars.iv.next74 = add nuw nsw i64 %indvars.iv73, 1
  %.not43 = icmp ult i32 %.03658, 4
  br i1 %.not43, label %._crit_edge62, label %68, !llvm.loop !18

._crit_edge62:                                    ; preds = %83, %57, %._crit_edge
  %.sink78 = phi i64 [ 1, %._crit_edge ], [ 2, %57 ], [ 2, %83 ]
  %84 = load ptr, ptr %4, align 8
  %85 = sext i32 %.lcssa52 to i64
  %86 = getelementptr inbounds [17 x i8], ptr @VP8EncBands, i64 0, i64 %85
  %87 = load i8, ptr %86, align 1
  %88 = zext i8 %87 to i64
  %89 = getelementptr inbounds [3 x [11 x i32]], ptr %84, i64 %88, i64 %.sink78
  %90 = load i32, ptr %9, align 4
  %.not = icmp sgt i32 %.lcssa52, %90
  br i1 %.not, label %._crit_edge67, label %13, !llvm.loop !19

._crit_edge67:                                    ; preds = %._crit_edge62, %.preheader
  %.038.lcssa = phi ptr [ %8, %.preheader ], [ %89, %._crit_edge62 ]
  %.037.lcssa = phi i32 [ %3, %.preheader ], [ %.lcssa52, %._crit_edge62 ]
  %91 = icmp slt i32 %.037.lcssa, 16
  br i1 %91, label %.sink.split, label %98

.sink.split:                                      ; preds = %._crit_edge67, %2
  %.038.lcssa.sink88 = phi ptr [ %8, %2 ], [ %.038.lcssa, %._crit_edge67 ]
  %.0.ph = phi i32 [ 0, %2 ], [ 1, %._crit_edge67 ]
  %92 = load i32, ptr %.038.lcssa.sink88, align 4
  %93 = icmp ugt i32 %92, -131073
  %94 = add nsw i32 %92, 1
  %95 = lshr i32 %94, 1
  %96 = and i32 %95, 2147450879
  %.0.i50 = select i1 %93, i32 %96, i32 %92
  %97 = add nuw i32 %.0.i50, 65536
  store i32 %97, ptr %.038.lcssa.sink88, align 4
  br label %98

98:                                               ; preds = %.sink.split, %._crit_edge67
  %.0 = phi i32 [ 1, %._crit_edge67 ], [ %.0.ph, %.sink.split ]
  ret i32 %.0
}